; ModuleID = '58/229.c'
source_filename = "58/229.c"
target datalayout = "e-m:e-p270:32:32-p271:32:32-p272:64:64-i64:64-f80:128-n8:16:32:64-S128"
target triple = "x86_64-pc-linux-gnu"

@.str = private unnamed_addr constant [3 x i8] c"%d\00", align 1
@.str.1 = private unnamed_addr constant [4 x i8] c"%d\0A\00", align 1

; Function Attrs: noinline nounwind uwtable
define dso_local i32 @main() #0 {
  %1 = alloca i32, align 4
  %2 = alloca [81 x i8], align 16
  %3 = alloca i32, align 4
  %4 = alloca i32, align 4
  %5 = alloca i32, align 4
  %6 = alloca i8*, align 8
  store i32 0, i32* %1, align 4
  %7 = call i32 (i8*, ...) @__isoc99_scanf(i8* getelementptr inbounds ([3 x i8], [3 x i8]* @.str, i64 0, i64 0), i32* %4)
  store i32 0, i32* %3, align 4
  br label %8

8:                                                ; preds = %105, %0
  %9 = load i32, i32* %3, align 4
  %10 = load i32, i32* %4, align 4
  %11 = icmp slt i32 %9, %10
  br i1 %11, label %12, label %108

12:                                               ; preds = %8
  store i32 0, i32* %5, align 4
  %13 = load i32, i32* %3, align 4
  %14 = icmp eq i32 %13, 0
  br i1 %14, label %15, label %17

15:                                               ; preds = %12
  %16 = call i32 @getchar()
  br label %17

17:                                               ; preds = %15, %12
  %18 = getelementptr inbounds [81 x i8], [81 x i8]* %2, i64 0, i64 0
  %19 = call i32 (i8*, ...) bitcast (i32 (...)* @gets to i32 (i8*, ...)*)(i8* %18)
  %20 = getelementptr inbounds [81 x i8], [81 x i8]* %2, i64 0, i64 0
  store i8* %20, i8** %6, align 8
  br label %21

21:                                               ; preds = %99, %17
  %22 = load i8*, i8** %6, align 8
  %23 = getelementptr inbounds [81 x i8], [81 x i8]* %2, i64 0, i64 0
  %24 = getelementptr inbounds [81 x i8], [81 x i8]* %2, i64 0, i64 0
  %25 = call i64 @strlen(i8* %24) #3
  %26 = getelementptr inbounds i8, i8* %23, i64 %25
  %27 = icmp ult i8* %22, %26
  br i1 %27, label %28, label %102

28:                                               ; preds = %21
  %29 = load i8*, i8** %6, align 8
  %30 = getelementptr inbounds [81 x i8], [81 x i8]* %2, i64 0, i64 0
  %31 = icmp eq i8* %29, %30
  br i1 %31, label %32, label %60

32:                                               ; preds = %28
  %33 = load i8*, i8** %6, align 8
  %34 = load i8, i8* %33, align 1
  %35 = sext i8 %34 to i32
  %36 = icmp sge i32 %35, 65
  br i1 %36, label %37, label %42

37:                                               ; preds = %32
  %38 = load i8*, i8** %6, align 8
  %39 = load i8, i8* %38, align 1
  %40 = sext i8 %39 to i32
  %41 = icmp sle i32 %40, 90
  br i1 %41, label %57, label %42

42:                                               ; preds = %37, %32
  %43 = load i8*, i8** %6, align 8
  %44 = load i8, i8* %43, align 1
  %45 = sext i8 %44 to i32
  %46 = icmp sge i32 %45, 97
  br i1 %46, label %47, label %52

47:                                               ; preds = %42
  %48 = load i8*, i8** %6, align 8
  %49 = load i8, i8* %48, align 1
  %50 = sext i8 %49 to i32
  %51 = icmp sle i32 %50, 122
  br i1 %51, label %57, label %52

52:                                               ; preds = %47, %42
  %53 = load i8*, i8** %6, align 8
  %54 = load i8, i8* %53, align 1
  %55 = sext i8 %54 to i32
  %56 = icmp eq i32 %55, 95
  br i1 %56, label %57, label %58

57:                                               ; preds = %52, %47, %37
  store i32 1, i32* %5, align 4
  br label %59

58:                                               ; preds = %52
  br label %102

59:                                               ; preds = %57
  br label %98

60:                                               ; preds = %28
  %61 = load i8*, i8** %6, align 8
  %62 = load i8, i8* %61, align 1
  %63 = sext i8 %62 to i32
  %64 = icmp sge i32 %63, 65
  br i1 %64, label %65, label %70

65:                                               ; preds = %60
  %66 = load i8*, i8** %6, align 8
  %67 = load i8, i8* %66, align 1
  %68 = sext i8 %67 to i32
  %69 = icmp sle i32 %68, 90
  br i1 %69, label %95, label %70

70:                                               ; preds = %65, %60
  %71 = load i8*, i8** %6, align 8
  %72 = load i8, i8* %71, align 1
  %73 = sext i8 %72 to i32
  %74 = icmp sge i32 %73, 97
  br i1 %74, label %75, label %80

75:                                               ; preds = %70
  %76 = load i8*, i8** %6, align 8
  %77 = load i8, i8* %76, align 1
  %78 = sext i8 %77 to i32
  %79 = icmp sle i32 %78, 122
  br i1 %79, label %95, label %80

80:                                               ; preds = %75, %70
  %81 = load i8*, i8** %6, align 8
  %82 = load i8, i8* %81, align 1
  %83 = sext i8 %82 to i32
  %84 = icmp sge i32 %83, 48
  br i1 %84, label %85, label %90

85:                                               ; preds = %80
  %86 = load i8*, i8** %6, align 8
  %87 = load i8, i8* %86, align 1
  %88 = sext i8 %87 to i32
  %89 = icmp sle i32 %88, 57
  br i1 %89, label %95, label %90

90:                                               ; preds = %85, %80
  %91 = load i8*, i8** %6, align 8
  %92 = load i8, i8* %91, align 1
  %93 = sext i8 %92 to i32
  %94 = icmp eq i32 %93, 95
  br i1 %94, label %95, label %96

95:                                               ; preds = %90, %85, %75, %65
  store i32 1, i32* %5, align 4
  br label %97

96:                                               ; preds = %90
  store i32 0, i32* %5, align 4
  br label %102

97:                                               ; preds = %95
  br label %98

98:                                               ; preds = %97, %59
  br label %99

99:                                               ; preds = %98
  %100 = load i8*, i8** %6, align 8
  %101 = getelementptr inbounds i8, i8* %100, i32 1
  store i8* %101, i8** %6, align 8
  br label %21

102:                                              ; preds = %96, %58, %21
  %103 = load i32, i32* %5, align 4
  %104 = call i32 (i8*, ...) @printf(i8* getelementptr inbounds ([4 x i8], [4 x i8]* @.str.1, i64 0, i64 0), i32 %103)
  br label %105

105:                                              ; preds = %102
  %106 = load i32, i32* %3, align 4
  %107 = add nsw i32 %106, 1
  store i32 %107, i32* %3, align 4
  br label %8

108:                                              ; preds = %8
  ret i32 0
}

declare dso_local i32 @__isoc99_scanf(i8*, ...) #1

declare dso_local i32 @getchar() #1

declare dso_local i32 @gets(...) #1

; Function Attrs: nounwind readonly
declare dso_local i64 @strlen(i8*) #2

declare dso_local i32 @printf(i8*, ...) #1


!llvm.module.flags = !{!0}
!llvm.ident = !{!1}

!0 = !{i32 1, !"wchar_size", i32 4}
!1 = !{!"clang version 10.0.0-4ubuntu1 "}
