; ModuleID = 'source-C-CXX/57/229.c'
source_filename = "source-C-CXX/57/229.c"
target datalayout = "e-m:e-p270:32:32-p271:32:32-p272:64:64-i64:64-f80:128-n8:16:32:64-S128"
target triple = "x86_64-pc-linux-gnu"

%struct._IO_FILE = type { i32, i8*, i8*, i8*, i8*, i8*, i8*, i8*, i8*, i8*, i8*, i8*, %struct._IO_marker*, %struct._IO_FILE*, i32, i32, i64, i16, i8, [1 x i8], i8*, i64, %struct._IO_codecvt*, %struct._IO_wide_data*, %struct._IO_FILE*, i8*, i64, i32, [20 x i8] }
%struct._IO_marker = type opaque
%struct._IO_codecvt = type opaque
%struct._IO_wide_data = type opaque

@.str = private unnamed_addr constant [3 x i8] c"%d\00", align 1
@.str.1 = private unnamed_addr constant [4 x i8] c"%d\0A\00", align 1
@stdin = external local_unnamed_addr global %struct._IO_FILE*, align 8

; Function Attrs: nounwind sspstrong uwtable
define dso_local i32 @main() local_unnamed_addr #0 {
  %1 = alloca [81 x i8], align 16
  %2 = alloca i32, align 4
  %3 = getelementptr inbounds [81 x i8], [81 x i8]* %1, i64 0, i64 0
  call void @llvm.lifetime.start.p0i8(i64 81, i8* nonnull %3) #5
  %4 = bitcast i32* %2 to i8*
  call void @llvm.lifetime.start.p0i8(i64 4, i8* nonnull %4) #5
  %5 = call i32 (i8*, ...) @__isoc99_scanf(i8* getelementptr inbounds ([3 x i8], [3 x i8]* @.str, i64 0, i64 0), i32* nonnull %2)
  %6 = load i32, i32* %2, align 4, !tbaa !5
  %7 = icmp sgt i32 %6, 0
  br i1 %7, label %8, label %51

8:                                                ; preds = %0, %45
  %9 = phi i32 [ %48, %45 ], [ 0, %0 ]
  %10 = icmp eq i32 %9, 0
  br i1 %10, label %11, label %14

11:                                               ; preds = %8
  %12 = load %struct._IO_FILE*, %struct._IO_FILE** @stdin, align 8, !tbaa !9
  %13 = call i32 @getc(%struct._IO_FILE* %12) #5
  br label %14

14:                                               ; preds = %11, %8
  %15 = call i32 (i8*, ...) bitcast (i32 (...)* @gets to i32 (i8*, ...)*)(i8* nonnull %3) #5
  %16 = call i64 @strlen(i8* noundef nonnull %3) #6
  %17 = icmp sgt i64 %16, 0
  br i1 %17, label %18, label %45

18:                                               ; preds = %14, %41
  %19 = phi i8* [ %43, %41 ], [ %3, %14 ]
  %20 = phi i64 [ %42, %41 ], [ 0, %14 ]
  %21 = phi i32 [ 1, %41 ], [ 0, %14 ]
  %22 = icmp eq i64 %20, 0
  %23 = load i8, i8* %19, align 1, !tbaa !11
  br i1 %22, label %24, label %32

24:                                               ; preds = %18
  %25 = add i8 %23, -65
  %26 = icmp ult i8 %25, 26
  br i1 %26, label %41, label %27

27:                                               ; preds = %24
  %28 = add i8 %23, -97
  %29 = icmp ult i8 %28, 26
  %30 = icmp eq i8 %23, 95
  %31 = or i1 %30, %29
  br i1 %31, label %41, label %45

32:                                               ; preds = %18
  %33 = and i8 %23, -33
  %34 = add i8 %33, -65
  %35 = icmp ult i8 %34, 26
  br i1 %35, label %41, label %36

36:                                               ; preds = %32
  %37 = add i8 %23, -48
  %38 = icmp ult i8 %37, 10
  %39 = icmp eq i8 %23, 95
  %40 = or i1 %39, %38
  br i1 %40, label %41, label %45

41:                                               ; preds = %32, %36, %24, %27
  %42 = add nuw nsw i64 %20, 1
  %43 = getelementptr inbounds [81 x i8], [81 x i8]* %1, i64 0, i64 %42
  %44 = icmp eq i64 %42, %16
  br i1 %44, label %45, label %18, !llvm.loop !12

45:                                               ; preds = %41, %27, %36, %14
  %46 = phi i32 [ 0, %14 ], [ 0, %36 ], [ %21, %27 ], [ 1, %41 ]
  %47 = call i32 (i8*, ...) @printf(i8* nonnull dereferenceable(1) getelementptr inbounds ([4 x i8], [4 x i8]* @.str.1, i64 0, i64 0), i32 %46)
  %48 = add nuw nsw i32 %9, 1
  %49 = load i32, i32* %2, align 4, !tbaa !5
  %50 = icmp slt i32 %48, %49
  br i1 %50, label %8, label %51, !llvm.loop !14

51:                                               ; preds = %45, %0
  call void @llvm.lifetime.end.p0i8(i64 4, i8* nonnull %4) #5
  call void @llvm.lifetime.end.p0i8(i64 81, i8* nonnull %3) #5
  ret i32 0
}

; Function Attrs: argmemonly mustprogress nofree nosync nounwind willreturn
declare void @llvm.lifetime.start.p0i8(i64 immarg, i8* nocapture) #1

; Function Attrs: nofree nounwind
declare noundef i32 @__isoc99_scanf(i8* nocapture noundef readonly, ...) local_unnamed_addr #2

declare i32 @gets(...) local_unnamed_addr #3

; Function Attrs: argmemonly mustprogress nofree nounwind readonly willreturn
declare i64 @strlen(i8* nocapture) local_unnamed_addr #4

; Function Attrs: nofree nounwind
declare noundef i32 @printf(i8* nocapture noundef readonly, ...) local_unnamed_addr #2

; Function Attrs: argmemonly mustprogress nofree nosync nounwind willreturn
declare void @llvm.lifetime.end.p0i8(i64 immarg, i8* nocapture) #1

; Function Attrs: nofree nounwind
declare noundef i32 @getc(%struct._IO_FILE* nocapture noundef) local_unnamed_addr #2


!llvm.module.flags = !{!0, !1, !2, !3}
!llvm.ident = !{!4}

!0 = !{i32 1, !"wchar_size", i32 4}
!1 = !{i32 7, !"PIC Level", i32 2}
!2 = !{i32 7, !"PIE Level", i32 2}
!3 = !{i32 7, !"uwtable", i32 1}
!4 = !{!"clang version 13.0.0"}
!5 = !{!6, !6, i64 0}
!6 = !{!"int", !7, i64 0}
!7 = !{!"omnipotent char", !8, i64 0}
!8 = !{!"Simple C/C++ TBAA"}
!9 = !{!10, !10, i64 0}
!10 = !{!"any pointer", !7, i64 0}
!11 = !{!7, !7, i64 0}
!12 = distinct !{!12, !13}
!13 = !{!"llvm.loop.mustprogress"}
!14 = distinct !{!14, !13}
